target datalayout = "e-m:e-p270:32:32-p271:32:32-p272:64:64-i64:64-i128:128-f80:128-n8:16:32:64-S128"
target triple = "x86_64-pc-linux-gnu"

%class.dtTileCache = type { i32, i32, ptr, ptr, ptr, i32, i32, %struct.dtTileCacheParams, ptr, ptr, ptr, ptr, ptr, [64 x %"struct.dtTileCache::ObstacleRequest"], i32, [64 x i32], i32 }
%struct.dtTileCacheParams = type { [3 x float], float, float, i32, i32, float, float, float, float, i32, i32 }
%"struct.dtTileCache::ObstacleRequest" = type { i32, i32 }
%struct.dtCompressedTile = type { i32, ptr, ptr, i32, ptr, i32, i32, ptr }
%struct.dtTileCacheLayerHeader = type { i32, i32, i32, i32, i32, [3 x float], [3 x float], i16, i16, i8, i8, i8, i8, i8, i8 }

; Function Attrs: mustprogress nounwind uwtable
define linkonce_odr noundef i32 @_ZNK11dtTileCache12encodeTileIdEjj(ptr noundef nonnull align 8 dereferenceable(912) %0, i32 noundef %1, i32 noundef %2) #2 comdat align 2 {
  %4 = alloca ptr, align 8
  %5 = alloca i32, align 4
  %6 = alloca i32, align 4
  store ptr %0, ptr %4, align 8
  store i32 %1, ptr %5, align 4
  store i32 %2, ptr %6, align 4
  %7 = load ptr, ptr %4, align 8
  %8 = load i32, ptr %5, align 4
  %9 = getelementptr inbounds %class.dtTileCache, ptr %7, i32 0, i32 6
  %10 = load i32, ptr %9, align 4
  %11 = shl i32 %8, %10
  %12 = load i32, ptr %6, align 4
  %13 = or i32 %11, %12
  ret i32 %13
}

; Function Attrs: mustprogress uwtable
define noundef i32 @_ZNK11dtTileCache10getTileRefEPK16dtCompressedTile(ptr noundef nonnull align 8 dereferenceable(912) %0, ptr noundef %1) #0 align 2 {
  %3 = alloca i32, align 4
  %4 = alloca ptr, align 8
  %5 = alloca ptr, align 8
  %6 = alloca i32, align 4
  store ptr %0, ptr %4, align 8
  store ptr %1, ptr %5, align 8
  %7 = load ptr, ptr %4, align 8
  %8 = load ptr, ptr %5, align 8
  %9 = icmp ne ptr %8, null
  br i1 %9, label %11, label %10

10:                                               ; preds = %2
  store i32 0, ptr %3, align 4
  br label %25

11:                                               ; preds = %2
  %12 = load ptr, ptr %5, align 8
  %13 = getelementptr inbounds %class.dtTileCache, ptr %7, i32 0, i32 4
  %14 = load ptr, ptr %13, align 8
  %15 = ptrtoint ptr %12 to i64
  %16 = ptrtoint ptr %14 to i64
  %17 = sub i64 %15, %16
  %18 = sdiv exact i64 %17, 56
  %19 = trunc i64 %18 to i32
  store i32 %19, ptr %6, align 4
  %20 = load ptr, ptr %5, align 8
  %21 = getelementptr inbounds %struct.dtCompressedTile, ptr %20, i32 0, i32 0
  %22 = load i32, ptr %21, align 8
  %23 = load i32, ptr %6, align 4
  %24 = call noundef i32 @_ZNK11dtTileCache12encodeTileIdEjj(ptr noundef nonnull align 8 dereferenceable(912) %7, i32 noundef %22, i32 noundef %23)
  store i32 %24, ptr %3, align 4
  br label %25

25:                                               ; preds = %11, %10
  %26 = load i32, ptr %3, align 4
  ret i32 %26
}

; Function Attrs: mustprogress nounwind uwtable
define linkonce_odr noundef i32 @_Z15computeTileHashiii(i32 noundef %0, i32 noundef %1, i32 noundef %2) #2 comdat {
  %4 = alloca i32, align 4
  %5 = alloca i32, align 4
  %6 = alloca i32, align 4
  %7 = alloca i32, align 4
  %8 = alloca i32, align 4
  %9 = alloca i32, align 4
  store i32 %0, ptr %4, align 4
  store i32 %1, ptr %5, align 4
  store i32 %2, ptr %6, align 4
  store i32 -1918454973, ptr %7, align 4
  store i32 -669632447, ptr %8, align 4
  %10 = load i32, ptr %4, align 4
  %11 = mul i32 -1918454973, %10
  %12 = load i32, ptr %5, align 4
  %13 = mul i32 -669632447, %12
  %14 = add i32 %11, %13
  store i32 %14, ptr %9, align 4
  %15 = load i32, ptr %9, align 4
  %16 = load i32, ptr %6, align 4
  %17 = and i32 %15, %16
  ret i32 %17
}

; Function Attrs: mustprogress uwtable
define noundef i32 @_ZNK11dtTileCache10getTilesAtEiiPji(ptr noundef nonnull align 8 dereferenceable(912) %0, i32 noundef %1, i32 noundef %2, ptr noundef %3, i32 noundef %4) #0 align 2 {
  %6 = alloca ptr, align 8
  %7 = alloca i32, align 4
  %8 = alloca i32, align 4
  %9 = alloca ptr, align 8
  %10 = alloca i32, align 4
  %11 = alloca i32, align 4
  %12 = alloca i32, align 4
  %13 = alloca ptr, align 8
  store ptr %0, ptr %6, align 8
  store i32 %1, ptr %7, align 4
  store i32 %2, ptr %8, align 4
  store ptr %3, ptr %9, align 8
  store i32 %4, ptr %10, align 4
  %14 = load ptr, ptr %6, align 8
  store i32 0, ptr %11, align 4
  %15 = load i32, ptr %7, align 4
  %16 = load i32, ptr %8, align 4
  %17 = getelementptr inbounds %class.dtTileCache, ptr %14, i32 0, i32 1
  %18 = load i32, ptr %17, align 4
  %19 = call noundef i32 @_Z15computeTileHashiii(i32 noundef %15, i32 noundef %16, i32 noundef %18)
  store i32 %19, ptr %12, align 4
  %20 = getelementptr inbounds %class.dtTileCache, ptr %14, i32 0, i32 2
  %21 = load ptr, ptr %20, align 8
  %22 = load i32, ptr %12, align 4
  %23 = sext i32 %22 to i64
  %24 = getelementptr inbounds ptr, ptr %21, i64 %23
  %25 = load ptr, ptr %24, align 8
  store ptr %25, ptr %13, align 8
  br label %26

26:                                               ; preds = %63, %5
  %27 = load ptr, ptr %13, align 8
  %28 = icmp ne ptr %27, null
  br i1 %28, label %29, label %67

29:                                               ; preds = %26
  %30 = load ptr, ptr %13, align 8
  %31 = getelementptr inbounds %struct.dtCompressedTile, ptr %30, i32 0, i32 1
  %32 = load ptr, ptr %31, align 8
  %33 = icmp ne ptr %32, null
  br i1 %33, label %34, label %63

34:                                               ; preds = %29
  %35 = load ptr, ptr %13, align 8
  %36 = getelementptr inbounds %struct.dtCompressedTile, ptr %35, i32 0, i32 1
  %37 = load ptr, ptr %36, align 8
  %38 = getelementptr inbounds %struct.dtTileCacheLayerHeader, ptr %37, i32 0, i32 2
  %39 = load i32, ptr %38, align 4
  %40 = load i32, ptr %7, align 4
  %41 = icmp eq i32 %39, %40
  br i1 %41, label %42, label %63

42:                                               ; preds = %34
  %43 = load ptr, ptr %13, align 8
  %44 = getelementptr inbounds %struct.dtCompressedTile, ptr %43, i32 0, i32 1
  %45 = load ptr, ptr %44, align 8
  %46 = getelementptr inbounds %struct.dtTileCacheLayerHeader, ptr %45, i32 0, i32 3
  %47 = load i32, ptr %46, align 4
  %48 = load i32, ptr %8, align 4
  %49 = icmp eq i32 %47, %48
  br i1 %49, label %50, label %63

50:                                               ; preds = %42
  %51 = load i32, ptr %11, align 4
  %52 = load i32, ptr %10, align 4
  %53 = icmp slt i32 %51, %52
  br i1 %53, label %54, label %62

54:                                               ; preds = %50
  %55 = load ptr, ptr %13, align 8
  %56 = call noundef i32 @_ZNK11dtTileCache10getTileRefEPK16dtCompressedTile(ptr noundef nonnull align 8 dereferenceable(912) %14, ptr noundef %55)
  %57 = load ptr, ptr %9, align 8
  %58 = load i32, ptr %11, align 4
  %59 = add nsw i32 %58, 1
  store i32 %59, ptr %11, align 4
  %60 = sext i32 %58 to i64
  %61 = getelementptr inbounds i32, ptr %57, i64 %60
  store i32 %56, ptr %61, align 4
  br label %62

62:                                               ; preds = %54, %50
  br label %63

63:                                               ; preds = %62, %42, %34, %29
  %64 = load ptr, ptr %13, align 8
  %65 = getelementptr inbounds %struct.dtCompressedTile, ptr %64, i32 0, i32 7
  %66 = load ptr, ptr %65, align 8
  store ptr %66, ptr %13, align 8
  br label %26, !llvm.loop !8

67:                                               ; preds = %26
  %68 = load i32, ptr %11, align 4
  ret i32 %68
}