; Function Attrs: mustprogress nofree norecurse nosync nounwind memory(read, argmem: readwrite, inaccessiblemem: none) uwtable
define noundef i32 @_ZNK11dtTileCache10getTilesAtEiiPji(ptr noundef nonnull readonly align 8 captures(none) dereferenceable(912) %0, i32 noundef %1, i32 noundef %2, ptr noundef writeonly captures(none) %3, i32 noundef %4) local_unnamed_addr #9 align 2 {
  %6 = getelementptr inbounds nuw i8, ptr %0, i64 4
  %7 = load i32, ptr %6, align 4
  %8 = mul i32 %1, -1918454973
  %9 = mul i32 %2, -669632447
  %10 = add i32 %9, %8
  %11 = and i32 %7, %10
  %12 = getelementptr inbounds nuw i8, ptr %0, i64 8
  %13 = load ptr, ptr %12, align 8
  %14 = sext i32 %11 to i64
  %15 = getelementptr inbounds ptr, ptr %13, i64 %14
  %.019 = load ptr, ptr %15, align 8
  %.not20 = icmp eq ptr %.019, null
  br i1 %.not20, label %._crit_edge, label %.lr.ph

.lr.ph:                                           ; preds = %5
  %16 = getelementptr inbounds nuw i8, ptr %0, i64 24
  %17 = getelementptr inbounds nuw i8, ptr %0, i64 36
  br label %18

18:                                               ; preds = %.lr.ph, %43
  %.022 = phi ptr [ %.019, %.lr.ph ], [ %.0, %43 ]
  %.01621 = phi i32 [ 0, %.lr.ph ], [ %.1, %43 ]
  %19 = getelementptr inbounds nuw i8, ptr %.022, i64 8
  %20 = load ptr, ptr %19, align 8
  %.not18 = icmp eq ptr %20, null
  br i1 %.not18, label %43, label %21

21:                                               ; preds = %18
  %22 = getelementptr inbounds nuw i8, ptr %20, i64 8
  %23 = load i32, ptr %22, align 4
  %24 = icmp eq i32 %23, %1
  br i1 %24, label %25, label %43

25:                                               ; preds = %21
  %26 = getelementptr inbounds nuw i8, ptr %20, i64 12
  %27 = load i32, ptr %26, align 4
  %28 = icmp eq i32 %27, %2
  %29 = icmp slt i32 %.01621, %4
  %or.cond = select i1 %28, i1 %29, i1 false
  br i1 %or.cond, label %_ZNK11dtTileCache10getTileRefEPK16dtCompressedTile.exit, label %43

_ZNK11dtTileCache10getTileRefEPK16dtCompressedTile.exit: ; preds = %25
  %30 = load ptr, ptr %16, align 8
  %31 = ptrtoint ptr %.022 to i64
  %32 = ptrtoint ptr %30 to i64
  %33 = sub i64 %31, %32
  %34 = sdiv exact i64 %33, 56
  %35 = trunc i64 %34 to i32
  %36 = load i32, ptr %.022, align 8
  %37 = load i32, ptr %17, align 4
  %38 = shl i32 %36, %37
  %39 = or i32 %38, %35
  %40 = add nsw i32 %.01621, 1
  %41 = sext i32 %.01621 to i64
  %42 = getelementptr inbounds i32, ptr %3, i64 %41
  store i32 %39, ptr %42, align 4
  br label %43

43:                                               ; preds = %_ZNK11dtTileCache10getTileRefEPK16dtCompressedTile.exit, %25, %21, %18
  %.1 = phi i32 [ %40, %_ZNK11dtTileCache10getTileRefEPK16dtCompressedTile.exit ], [ %.01621, %25 ], [ %.01621, %21 ], [ %.01621, %18 ]
  %44 = getelementptr inbounds nuw i8, ptr %.022, i64 48
  %.0 = load ptr, ptr %44, align 8
  %.not = icmp eq ptr %.0, null
  br i1 %.not, label %._crit_edge, label %18, !llvm.loop !8

._crit_edge:                                      ; preds = %43, %5
  %.016.lcssa = phi i32 [ 0, %5 ], [ %.1, %43 ]
  ret i32 %.016.lcssa
}